ARM GAS  C:\Users\Bagger\AppData\Local\Temp\ccwPPbOQ.s 			page 1


   1              		.cpu cortex-m0
   2              		.fpu softvfp
   3              		.eabi_attribute 20, 1
   4              		.eabi_attribute 21, 1
   5              		.eabi_attribute 23, 3
   6              		.eabi_attribute 24, 1
   7              		.eabi_attribute 25, 1
   8              		.eabi_attribute 26, 1
   9              		.eabi_attribute 30, 6
  10              		.eabi_attribute 34, 0
  11              		.eabi_attribute 18, 4
  12              		.code	16
  13              		.file	"UART_Class.c"
  14              		.text
  15              	.Ltext0:
  16              		.cfi_sections	.debug_frame
  17              		.section	.text.initUART,"ax",%progbits
  18              		.align	2
  19              		.global	initUART
  20              		.code	16
  21              		.thumb_func
  22              		.type	initUART, %function
  23              	initUART:
  24              	.LFB33:
  25              		.file 1 ".\\UART_Class.c"
   1:.\UART_Class.c **** /* ========================================
   2:.\UART_Class.c ****  * 
   3:.\UART_Class.c ****  * AutoGreen - PSoC_Master
   4:.\UART_Class.c ****  * UART_Class.c
   5:.\UART_Class.c ****  * (Description)
   6:.\UART_Class.c ****  * PRJ3 - GRP9
   7:.\UART_Class.c ****  * 2015-04-15
   8:.\UART_Class.c ****  *
   9:.\UART_Class.c ****  * ========================================
  10:.\UART_Class.c **** */
  11:.\UART_Class.c **** 
  12:.\UART_Class.c **** // Include files
  13:.\UART_Class.c **** #include "UART_Class.h"
  14:.\UART_Class.c **** 
  15:.\UART_Class.c **** //Definitions
  16:.\UART_Class.c **** #define CONVERT_TO_ASCII 48
  17:.\UART_Class.c **** 
  18:.\UART_Class.c **** // Init
  19:.\UART_Class.c **** void initUART(void){
  26              		.loc 1 19 0
  27              		.cfi_startproc
  28 0000 80B5     		push	{r7, lr}
  29              		.cfi_def_cfa_offset 8
  30              		.cfi_offset 7, -8
  31              		.cfi_offset 14, -4
  32 0002 00AF     		add	r7, sp, #0
  33              		.cfi_def_cfa_register 7
  20:.\UART_Class.c ****     UART_Start();                   // Starts UART component
  34              		.loc 1 20 0
  35 0004 FFF7FEFF 		bl	UART_Start
  21:.\UART_Class.c **** }
  36              		.loc 1 21 0
ARM GAS  C:\Users\Bagger\AppData\Local\Temp\ccwPPbOQ.s 			page 2


  37 0008 BD46     		mov	sp, r7
  38              		@ sp needed
  39 000a 80BD     		pop	{r7, pc}
  40              		.cfi_endproc
  41              	.LFE33:
  42              		.size	initUART, .-initUART
  43              		.section	.text.respondTemp,"ax",%progbits
  44              		.align	2
  45              		.global	respondTemp
  46              		.code	16
  47              		.thumb_func
  48              		.type	respondTemp, %function
  49              	respondTemp:
  50              	.LFB34:
  22:.\UART_Class.c **** 
  23:.\UART_Class.c **** //----------respondTemp0----------
  24:.\UART_Class.c **** int8 respondTemp(uint8 temp){
  51              		.loc 1 24 0
  52              		.cfi_startproc
  53 0000 80B5     		push	{r7, lr}
  54              		.cfi_def_cfa_offset 8
  55              		.cfi_offset 7, -8
  56              		.cfi_offset 14, -4
  57 0002 82B0     		sub	sp, sp, #8
  58              		.cfi_def_cfa_offset 16
  59 0004 00AF     		add	r7, sp, #0
  60              		.cfi_def_cfa_register 7
  61 0006 021C     		mov	r2, r0
  62 0008 FB1D     		add	r3, r7, #7
  63 000a 1A70     		strb	r2, [r3]
  25:.\UART_Class.c ****     if(temp){
  64              		.loc 1 25 0
  65 000c FB1D     		add	r3, r7, #7
  66 000e 1B78     		ldrb	r3, [r3]
  67 0010 002B     		cmp	r3, #0
  68 0012 09D0     		beq	.L3
  26:.\UART_Class.c ****         // If temp is between 1 and 200(both inclusive) "T" and temp is sent to DevKit8000
  27:.\UART_Class.c ****         UART_UartPutChar('T');
  69              		.loc 1 27 0
  70 0014 5420     		mov	r0, #84
  71 0016 FFF7FEFF 		bl	UART_SpiUartWriteTxData
  28:.\UART_Class.c ****         UART_UartPutChar(temp);
  72              		.loc 1 28 0
  73 001a FB1D     		add	r3, r7, #7
  74 001c 1B78     		ldrb	r3, [r3]
  75 001e 181C     		mov	r0, r3
  76 0020 FFF7FEFF 		bl	UART_SpiUartWriteTxData
  29:.\UART_Class.c ****         return 0;
  77              		.loc 1 29 0
  78 0024 0023     		mov	r3, #0
  79 0026 06E0     		b	.L4
  80              	.L3:
  30:.\UART_Class.c ****     }
  31:.\UART_Class.c ****     else{
  32:.\UART_Class.c ****         // If temp isn't between 1 and 200(both inclusive) "XT" is sent to DevKit8000
  33:.\UART_Class.c ****         UART_UartPutChar('X');
  81              		.loc 1 33 0
ARM GAS  C:\Users\Bagger\AppData\Local\Temp\ccwPPbOQ.s 			page 3


  82 0028 5820     		mov	r0, #88
  83 002a FFF7FEFF 		bl	UART_SpiUartWriteTxData
  34:.\UART_Class.c ****         UART_UartPutChar('T');
  84              		.loc 1 34 0
  85 002e 5420     		mov	r0, #84
  86 0030 FFF7FEFF 		bl	UART_SpiUartWriteTxData
  35:.\UART_Class.c ****         return -1;
  87              		.loc 1 35 0
  88 0034 FF23     		mov	r3, #255
  89              	.L4:
  90 0036 5BB2     		sxtb	r3, r3
  36:.\UART_Class.c ****     }
  37:.\UART_Class.c **** }
  91              		.loc 1 37 0
  92 0038 181C     		mov	r0, r3
  93 003a BD46     		mov	sp, r7
  94 003c 02B0     		add	sp, sp, #8
  95              		@ sp needed
  96 003e 80BD     		pop	{r7, pc}
  97              		.cfi_endproc
  98              	.LFE34:
  99              		.size	respondTemp, .-respondTemp
 100              		.section	.text.respondSoilHum,"ax",%progbits
 101              		.align	2
 102              		.global	respondSoilHum
 103              		.code	16
 104              		.thumb_func
 105              		.type	respondSoilHum, %function
 106              	respondSoilHum:
 107              	.LFB35:
  38:.\UART_Class.c **** //----------respondTemp1----------
  39:.\UART_Class.c **** 
  40:.\UART_Class.c **** int8 respondSoilHum(uint8 index, uint8 soilHum){
 108              		.loc 1 40 0
 109              		.cfi_startproc
 110 0000 80B5     		push	{r7, lr}
 111              		.cfi_def_cfa_offset 8
 112              		.cfi_offset 7, -8
 113              		.cfi_offset 14, -4
 114 0002 82B0     		sub	sp, sp, #8
 115              		.cfi_def_cfa_offset 16
 116 0004 00AF     		add	r7, sp, #0
 117              		.cfi_def_cfa_register 7
 118 0006 0A1C     		mov	r2, r1
 119 0008 FB1D     		add	r3, r7, #7
 120 000a 011C     		add	r1, r0, #0
 121 000c 1970     		strb	r1, [r3]
 122 000e BB1D     		add	r3, r7, #6
 123 0010 1A70     		strb	r2, [r3]
  41:.\UART_Class.c ****     if(soilHum <= 10 && soilHum >= 1){
 124              		.loc 1 41 0
 125 0012 BB1D     		add	r3, r7, #6
 126 0014 1B78     		ldrb	r3, [r3]
 127 0016 0A2B     		cmp	r3, #10
 128 0018 13D8     		bhi	.L6
 129              		.loc 1 41 0 is_stmt 0 discriminator 1
 130 001a BB1D     		add	r3, r7, #6
ARM GAS  C:\Users\Bagger\AppData\Local\Temp\ccwPPbOQ.s 			page 4


 131 001c 1B78     		ldrb	r3, [r3]
 132 001e 002B     		cmp	r3, #0
 133 0020 0FD0     		beq	.L6
  42:.\UART_Class.c ****         // If soilHum is between 1 and 10(both inclusive) "S", the index number and soilHum is sent
  43:.\UART_Class.c ****         UART_UartPutChar('S');
 134              		.loc 1 43 0 is_stmt 1
 135 0022 5320     		mov	r0, #83
 136 0024 FFF7FEFF 		bl	UART_SpiUartWriteTxData
  44:.\UART_Class.c ****         UART_UartPutChar(index + CONVERT_TO_ASCII + 1); //Conevert to ASCII and convert to 1-6.
 137              		.loc 1 44 0
 138 0028 FB1D     		add	r3, r7, #7
 139 002a 1B78     		ldrb	r3, [r3]
 140 002c 3133     		add	r3, r3, #49
 141 002e 181C     		mov	r0, r3
 142 0030 FFF7FEFF 		bl	UART_SpiUartWriteTxData
  45:.\UART_Class.c ****         UART_UartPutChar(soilHum);
 143              		.loc 1 45 0
 144 0034 BB1D     		add	r3, r7, #6
 145 0036 1B78     		ldrb	r3, [r3]
 146 0038 181C     		mov	r0, r3
 147 003a FFF7FEFF 		bl	UART_SpiUartWriteTxData
  46:.\UART_Class.c ****         return 0;
 148              		.loc 1 46 0
 149 003e 0023     		mov	r3, #0
 150 0040 06E0     		b	.L7
 151              	.L6:
  47:.\UART_Class.c ****     }
  48:.\UART_Class.c ****     else{
  49:.\UART_Class.c ****         // If soilHum isn't between 1 and 10(both inclusive) "XS" is sent to DevKit8000
  50:.\UART_Class.c ****         UART_UartPutChar('X');
 152              		.loc 1 50 0
 153 0042 5820     		mov	r0, #88
 154 0044 FFF7FEFF 		bl	UART_SpiUartWriteTxData
  51:.\UART_Class.c ****         UART_UartPutChar('S');
 155              		.loc 1 51 0
 156 0048 5320     		mov	r0, #83
 157 004a FFF7FEFF 		bl	UART_SpiUartWriteTxData
  52:.\UART_Class.c ****         return -1;
 158              		.loc 1 52 0
 159 004e FF23     		mov	r3, #255
 160              	.L7:
 161 0050 5BB2     		sxtb	r3, r3
  53:.\UART_Class.c ****     }
  54:.\UART_Class.c **** }
 162              		.loc 1 54 0
 163 0052 181C     		mov	r0, r3
 164 0054 BD46     		mov	sp, r7
 165 0056 02B0     		add	sp, sp, #8
 166              		@ sp needed
 167 0058 80BD     		pop	{r7, pc}
 168              		.cfi_endproc
 169              	.LFE35:
 170              		.size	respondSoilHum, .-respondSoilHum
 171 005a C046     		.section	.text.respondHeat,"ax",%progbits
 172              		.align	2
 173              		.global	respondHeat
 174              		.code	16
ARM GAS  C:\Users\Bagger\AppData\Local\Temp\ccwPPbOQ.s 			page 5


 175              		.thumb_func
 176              		.type	respondHeat, %function
 177              	respondHeat:
 178              	.LFB36:
  55:.\UART_Class.c **** 
  56:.\UART_Class.c **** int8 respondHeat(int8 heatStatus, uint8 onOff){
 179              		.loc 1 56 0
 180              		.cfi_startproc
 181 0000 80B5     		push	{r7, lr}
 182              		.cfi_def_cfa_offset 8
 183              		.cfi_offset 7, -8
 184              		.cfi_offset 14, -4
 185 0002 82B0     		sub	sp, sp, #8
 186              		.cfi_def_cfa_offset 16
 187 0004 00AF     		add	r7, sp, #0
 188              		.cfi_def_cfa_register 7
 189 0006 0A1C     		mov	r2, r1
 190 0008 FB1D     		add	r3, r7, #7
 191 000a 011C     		add	r1, r0, #0
 192 000c 1970     		strb	r1, [r3]
 193 000e BB1D     		add	r3, r7, #6
 194 0010 1A70     		strb	r2, [r3]
  57:.\UART_Class.c ****     if(heatStatus == 0){
 195              		.loc 1 57 0
 196 0012 FB1D     		add	r3, r7, #7
 197 0014 1B78     		ldrb	r3, [r3]
 198 0016 5BB2     		sxtb	r3, r3
 199 0018 002B     		cmp	r3, #0
 200 001a 06D1     		bne	.L9
  58:.\UART_Class.c ****         // If heatStatus is 0 then onOff('H' or 'K') is sent to DevKit8000
  59:.\UART_Class.c ****         UART_UartPutChar(onOff);
 201              		.loc 1 59 0
 202 001c BB1D     		add	r3, r7, #6
 203 001e 1B78     		ldrb	r3, [r3]
 204 0020 181C     		mov	r0, r3
 205 0022 FFF7FEFF 		bl	UART_SpiUartWriteTxData
  60:.\UART_Class.c ****         return 0;
 206              		.loc 1 60 0
 207 0026 0023     		mov	r3, #0
 208 0028 08E0     		b	.L10
 209              	.L9:
  61:.\UART_Class.c ****     }
  62:.\UART_Class.c ****     else{
  63:.\UART_Class.c ****         // If heatStatus isn't 0 then 'X' and onOff('H' or 'K') is sent to DevKit8000
  64:.\UART_Class.c ****         UART_UartPutChar('X');
 210              		.loc 1 64 0
 211 002a 5820     		mov	r0, #88
 212 002c FFF7FEFF 		bl	UART_SpiUartWriteTxData
  65:.\UART_Class.c ****         UART_UartPutChar(onOff);
 213              		.loc 1 65 0
 214 0030 BB1D     		add	r3, r7, #6
 215 0032 1B78     		ldrb	r3, [r3]
 216 0034 181C     		mov	r0, r3
 217 0036 FFF7FEFF 		bl	UART_SpiUartWriteTxData
  66:.\UART_Class.c ****         return -1;
 218              		.loc 1 66 0
 219 003a FF23     		mov	r3, #255
ARM GAS  C:\Users\Bagger\AppData\Local\Temp\ccwPPbOQ.s 			page 6


 220              	.L10:
 221 003c 5BB2     		sxtb	r3, r3
  67:.\UART_Class.c ****     }
  68:.\UART_Class.c **** }
 222              		.loc 1 68 0
 223 003e 181C     		mov	r0, r3
 224 0040 BD46     		mov	sp, r7
 225 0042 02B0     		add	sp, sp, #8
 226              		@ sp needed
 227 0044 80BD     		pop	{r7, pc}
 228              		.cfi_endproc
 229              	.LFE36:
 230              		.size	respondHeat, .-respondHeat
 231 0046 C046     		.section	.text.respondWin,"ax",%progbits
 232              		.align	2
 233              		.global	respondWin
 234              		.code	16
 235              		.thumb_func
 236              		.type	respondWin, %function
 237              	respondWin:
 238              	.LFB37:
  69:.\UART_Class.c **** 
  70:.\UART_Class.c **** int8 respondWin(int8 winStatus){
 239              		.loc 1 70 0
 240              		.cfi_startproc
 241 0000 80B5     		push	{r7, lr}
 242              		.cfi_def_cfa_offset 8
 243              		.cfi_offset 7, -8
 244              		.cfi_offset 14, -4
 245 0002 82B0     		sub	sp, sp, #8
 246              		.cfi_def_cfa_offset 16
 247 0004 00AF     		add	r7, sp, #0
 248              		.cfi_def_cfa_register 7
 249 0006 021C     		mov	r2, r0
 250 0008 FB1D     		add	r3, r7, #7
 251 000a 1A70     		strb	r2, [r3]
  71:.\UART_Class.c ****     if(winStatus == 0){
 252              		.loc 1 71 0
 253 000c FB1D     		add	r3, r7, #7
 254 000e 1B78     		ldrb	r3, [r3]
 255 0010 5BB2     		sxtb	r3, r3
 256 0012 002B     		cmp	r3, #0
 257 0014 04D1     		bne	.L12
  72:.\UART_Class.c ****         // If winStatus is 0 then 'W' is sent to DevKit8000
  73:.\UART_Class.c ****         UART_UartPutChar('W');
 258              		.loc 1 73 0
 259 0016 5720     		mov	r0, #87
 260 0018 FFF7FEFF 		bl	UART_SpiUartWriteTxData
  74:.\UART_Class.c ****         return 0;
 261              		.loc 1 74 0
 262 001c 0023     		mov	r3, #0
 263 001e 06E0     		b	.L13
 264              	.L12:
  75:.\UART_Class.c ****     }
  76:.\UART_Class.c ****     else{
  77:.\UART_Class.c ****         // If heatStatus isn't 0 then "XW" is sent to DevKit8000
  78:.\UART_Class.c ****         UART_UartPutChar('X');
ARM GAS  C:\Users\Bagger\AppData\Local\Temp\ccwPPbOQ.s 			page 7


 265              		.loc 1 78 0
 266 0020 5820     		mov	r0, #88
 267 0022 FFF7FEFF 		bl	UART_SpiUartWriteTxData
  79:.\UART_Class.c ****         UART_UartPutChar('W');
 268              		.loc 1 79 0
 269 0026 5720     		mov	r0, #87
 270 0028 FFF7FEFF 		bl	UART_SpiUartWriteTxData
  80:.\UART_Class.c ****         return -1;
 271              		.loc 1 80 0
 272 002c FF23     		mov	r3, #255
 273              	.L13:
 274 002e 5BB2     		sxtb	r3, r3
  81:.\UART_Class.c ****     }
  82:.\UART_Class.c **** }
 275              		.loc 1 82 0
 276 0030 181C     		mov	r0, r3
 277 0032 BD46     		mov	sp, r7
 278 0034 02B0     		add	sp, sp, #8
 279              		@ sp needed
 280 0036 80BD     		pop	{r7, pc}
 281              		.cfi_endproc
 282              	.LFE37:
 283              		.size	respondWin, .-respondWin
 284              		.section	.text.respondVent,"ax",%progbits
 285              		.align	2
 286              		.global	respondVent
 287              		.code	16
 288              		.thumb_func
 289              		.type	respondVent, %function
 290              	respondVent:
 291              	.LFB38:
  83:.\UART_Class.c **** 
  84:.\UART_Class.c **** int8 respondVent(int8 ventStatus){
 292              		.loc 1 84 0
 293              		.cfi_startproc
 294 0000 80B5     		push	{r7, lr}
 295              		.cfi_def_cfa_offset 8
 296              		.cfi_offset 7, -8
 297              		.cfi_offset 14, -4
 298 0002 82B0     		sub	sp, sp, #8
 299              		.cfi_def_cfa_offset 16
 300 0004 00AF     		add	r7, sp, #0
 301              		.cfi_def_cfa_register 7
 302 0006 021C     		mov	r2, r0
 303 0008 FB1D     		add	r3, r7, #7
 304 000a 1A70     		strb	r2, [r3]
  85:.\UART_Class.c ****     if(ventStatus == 0){
 305              		.loc 1 85 0
 306 000c FB1D     		add	r3, r7, #7
 307 000e 1B78     		ldrb	r3, [r3]
 308 0010 5BB2     		sxtb	r3, r3
 309 0012 002B     		cmp	r3, #0
 310 0014 04D1     		bne	.L15
  86:.\UART_Class.c ****         // If ventStatus is 0 then 'V' is sent to DevKit8000
  87:.\UART_Class.c ****         UART_UartPutChar('V');
 311              		.loc 1 87 0
 312 0016 5620     		mov	r0, #86
ARM GAS  C:\Users\Bagger\AppData\Local\Temp\ccwPPbOQ.s 			page 8


 313 0018 FFF7FEFF 		bl	UART_SpiUartWriteTxData
  88:.\UART_Class.c ****         return 0;
 314              		.loc 1 88 0
 315 001c 0023     		mov	r3, #0
 316 001e 06E0     		b	.L16
 317              	.L15:
  89:.\UART_Class.c ****     }
  90:.\UART_Class.c ****     else{
  91:.\UART_Class.c ****         // If ventStatus isn't 0 then "XV" is sent to DevKit8000
  92:.\UART_Class.c ****         UART_UartPutChar('X');
 318              		.loc 1 92 0
 319 0020 5820     		mov	r0, #88
 320 0022 FFF7FEFF 		bl	UART_SpiUartWriteTxData
  93:.\UART_Class.c ****         UART_UartPutChar('V');
 321              		.loc 1 93 0
 322 0026 5620     		mov	r0, #86
 323 0028 FFF7FEFF 		bl	UART_SpiUartWriteTxData
  94:.\UART_Class.c ****         return -1;
 324              		.loc 1 94 0
 325 002c FF23     		mov	r3, #255
 326              	.L16:
 327 002e 5BB2     		sxtb	r3, r3
  95:.\UART_Class.c ****     }
  96:.\UART_Class.c **** }
 328              		.loc 1 96 0
 329 0030 181C     		mov	r0, r3
 330 0032 BD46     		mov	sp, r7
 331 0034 02B0     		add	sp, sp, #8
 332              		@ sp needed
 333 0036 80BD     		pop	{r7, pc}
 334              		.cfi_endproc
 335              	.LFE38:
 336              		.size	respondVent, .-respondVent
 337              		.section	.text.respondIrri,"ax",%progbits
 338              		.align	2
 339              		.global	respondIrri
 340              		.code	16
 341              		.thumb_func
 342              		.type	respondIrri, %function
 343              	respondIrri:
 344              	.LFB39:
  97:.\UART_Class.c **** 
  98:.\UART_Class.c **** int8 respondIrri(int8 irriStatus){
 345              		.loc 1 98 0
 346              		.cfi_startproc
 347 0000 80B5     		push	{r7, lr}
 348              		.cfi_def_cfa_offset 8
 349              		.cfi_offset 7, -8
 350              		.cfi_offset 14, -4
 351 0002 82B0     		sub	sp, sp, #8
 352              		.cfi_def_cfa_offset 16
 353 0004 00AF     		add	r7, sp, #0
 354              		.cfi_def_cfa_register 7
 355 0006 021C     		mov	r2, r0
 356 0008 FB1D     		add	r3, r7, #7
 357 000a 1A70     		strb	r2, [r3]
  99:.\UART_Class.c ****     if(irriStatus == 0){
ARM GAS  C:\Users\Bagger\AppData\Local\Temp\ccwPPbOQ.s 			page 9


 358              		.loc 1 99 0
 359 000c FB1D     		add	r3, r7, #7
 360 000e 1B78     		ldrb	r3, [r3]
 361 0010 5BB2     		sxtb	r3, r3
 362 0012 002B     		cmp	r3, #0
 363 0014 04D1     		bne	.L18
 100:.\UART_Class.c ****         // If irriStatus is 0 then 'F' is sent to DevKit8000
 101:.\UART_Class.c ****         UART_UartPutChar('F');
 364              		.loc 1 101 0
 365 0016 4620     		mov	r0, #70
 366 0018 FFF7FEFF 		bl	UART_SpiUartWriteTxData
 102:.\UART_Class.c ****         return 0;
 367              		.loc 1 102 0
 368 001c 0023     		mov	r3, #0
 369 001e 06E0     		b	.L19
 370              	.L18:
 103:.\UART_Class.c ****     }
 104:.\UART_Class.c ****     else{
 105:.\UART_Class.c ****         // If irriStatus isn't 0 then "XF" is sent to DevKit8000
 106:.\UART_Class.c ****         UART_UartPutChar('X');
 371              		.loc 1 106 0
 372 0020 5820     		mov	r0, #88
 373 0022 FFF7FEFF 		bl	UART_SpiUartWriteTxData
 107:.\UART_Class.c ****         UART_UartPutChar('F');
 374              		.loc 1 107 0
 375 0026 4620     		mov	r0, #70
 376 0028 FFF7FEFF 		bl	UART_SpiUartWriteTxData
 108:.\UART_Class.c ****         return -1;
 377              		.loc 1 108 0
 378 002c FF23     		mov	r3, #255
 379              	.L19:
 380 002e 5BB2     		sxtb	r3, r3
 109:.\UART_Class.c ****     }
 110:.\UART_Class.c **** }
 381              		.loc 1 110 0
 382 0030 181C     		mov	r0, r3
 383 0032 BD46     		mov	sp, r7
 384 0034 02B0     		add	sp, sp, #8
 385              		@ sp needed
 386 0036 80BD     		pop	{r7, pc}
 387              		.cfi_endproc
 388              	.LFE39:
 389              		.size	respondIrri, .-respondIrri
 390              		.section	.text.dkRequest,"ax",%progbits
 391              		.align	2
 392              		.global	dkRequest
 393              		.code	16
 394              		.thumb_func
 395              		.type	dkRequest, %function
 396              	dkRequest:
 397              	.LFB40:
 111:.\UART_Class.c **** 
 112:.\UART_Class.c **** //----------dkRequest0----------
 113:.\UART_Class.c **** uint8 dkRequest(void){
 398              		.loc 1 113 0
 399              		.cfi_startproc
 400 0000 80B5     		push	{r7, lr}
ARM GAS  C:\Users\Bagger\AppData\Local\Temp\ccwPPbOQ.s 			page 10


 401              		.cfi_def_cfa_offset 8
 402              		.cfi_offset 7, -8
 403              		.cfi_offset 14, -4
 404 0002 00AF     		add	r7, sp, #0
 405              		.cfi_def_cfa_register 7
 114:.\UART_Class.c ****     // Reads the UART buffer
 115:.\UART_Class.c ****     return UART_UartGetChar();
 406              		.loc 1 115 0
 407 0004 FFF7FEFF 		bl	UART_UartGetChar
 408 0008 031C     		mov	r3, r0
 409 000a DBB2     		uxtb	r3, r3
 116:.\UART_Class.c **** }
 410              		.loc 1 116 0
 411 000c 181C     		mov	r0, r3
 412 000e BD46     		mov	sp, r7
 413              		@ sp needed
 414 0010 80BD     		pop	{r7, pc}
 415              		.cfi_endproc
 416              	.LFE40:
 417              		.size	dkRequest, .-dkRequest
 418 0012 C046     		.text
 419              	.Letext0:
 420              		.file 2 "Generated_Source\\PSoC4/cytypes.h"